target datalayout = "e-m:e-p270:32:32-p271:32:32-p272:64:64-i64:64-i128:128-f80:128-n8:16:32:64-S128"
target triple = "x86_64-pc-linux-gnu"

%struct._zval_struct = type { %union._zend_value, %union.anon.2, %union.anon.5 }
%union._zend_value = type { i64 }
%union.anon.2 = type { i32 }
%union.anon.5 = type { i32 }
%struct._zend_refcounted_h = type { i32, %union.anon.6 }
%union.anon.6 = type { i32 }
%struct._spl_filesystem_object = type { ptr, ptr, ptr, ptr, ptr, i32, i64, ptr, ptr, %union.anon, %struct._zend_object }
%union.anon = type { %struct.anon }
%struct.anon = type { ptr, ptr, i32, ptr, ptr, ptr, %struct._php_stream_dirent }
%struct._php_stream_dirent = type { [256 x i8], i8 }
%struct._zend_object = type { %struct._zend_refcounted_h, i32, ptr, ptr, ptr, [1 x %struct._zval_struct] }
%struct._zend_string = type { %struct._zend_refcounted_h, i64, i64, [1 x i8] }
%struct.anon.0 = type { ptr, ptr, ptr, ptr, %struct._zval_struct, ptr, i64, i64, i64, %struct._zval_struct, ptr, i8, i8, i32 }

@spl_ce_RuntimeException = external global ptr, align 8
@.str.57 = private unnamed_addr constant [25 x i8] c"Cannot read from file %s\00", align 1
@.str.58 = private unnamed_addr constant [1 x i8] zeroinitializer, align 1

; Function Attrs: nounwind uwtable
define internal void @spl_filesystem_file_free_line(ptr noundef %0) #0 {
  %2 = alloca ptr, align 8
  %3 = alloca ptr, align 8
  store ptr %0, ptr %3, align 8
  %4 = load ptr, ptr %3, align 8
  %5 = getelementptr inbounds %struct._spl_filesystem_object, ptr %4, i32 0, i32 9
  %6 = getelementptr inbounds %struct.anon.0, ptr %5, i32 0, i32 5
  %7 = load ptr, ptr %6, align 8
  %8 = icmp ne ptr %7, null
  br i1 %8, label %9, label %17

9:                                                ; preds = %1
  %10 = load ptr, ptr %3, align 8
  %11 = getelementptr inbounds %struct._spl_filesystem_object, ptr %10, i32 0, i32 9
  %12 = getelementptr inbounds %struct.anon.0, ptr %11, i32 0, i32 5
  %13 = load ptr, ptr %12, align 8
  call void @_efree(ptr noundef %13)
  %14 = load ptr, ptr %3, align 8
  %15 = getelementptr inbounds %struct._spl_filesystem_object, ptr %14, i32 0, i32 9
  %16 = getelementptr inbounds %struct.anon.0, ptr %15, i32 0, i32 5
  store ptr null, ptr %16, align 8
  br label %17

17:                                               ; preds = %9, %1
  %18 = load ptr, ptr %3, align 8
  %19 = getelementptr inbounds %struct._spl_filesystem_object, ptr %18, i32 0, i32 9
  %20 = getelementptr inbounds %struct.anon.0, ptr %19, i32 0, i32 4
  store ptr %20, ptr %2, align 8
  %21 = load ptr, ptr %2, align 8
  %22 = getelementptr inbounds %struct._zval_struct, ptr %21, i32 0, i32 1
  %23 = load i8, ptr %22, align 8
  %24 = zext i8 %23 to i32
  %25 = icmp eq i32 %24, 0
  br i1 %25, label %36, label %26

26:                                               ; preds = %17
  %27 = load ptr, ptr %3, align 8
  %28 = getelementptr inbounds %struct._spl_filesystem_object, ptr %27, i32 0, i32 9
  %29 = getelementptr inbounds %struct.anon.0, ptr %28, i32 0, i32 4
  call void @zval_ptr_dtor(ptr noundef %29)
  br label %30

30:                                               ; preds = %26
  %31 = load ptr, ptr %3, align 8
  %32 = getelementptr inbounds %struct._spl_filesystem_object, ptr %31, i32 0, i32 9
  %33 = getelementptr inbounds %struct.anon.0, ptr %32, i32 0, i32 4
  %34 = getelementptr inbounds %struct._zval_struct, ptr %33, i32 0, i32 1
  store i32 0, ptr %34, align 8
  br label %35

35:                                               ; preds = %30
  br label %36

36:                                               ; preds = %35, %17
  ret void
}

; Function Attrs: nounwind uwtable
define internal i32 @spl_filesystem_file_read_ex(ptr noundef %0, i1 noundef zeroext %1, i64 noundef %2, i1 noundef zeroext %3) #0 {
  %5 = alloca i32, align 4
  %6 = alloca ptr, align 8
  %7 = alloca i8, align 1
  %8 = alloca i64, align 8
  %9 = alloca i8, align 1
  %10 = alloca ptr, align 8
  %11 = alloca i64, align 8
  store ptr %0, ptr %6, align 8
  %12 = zext i1 %1 to i8
  store i8 %12, ptr %7, align 1
  store i64 %2, ptr %8, align 8
  %13 = zext i1 %3 to i8
  store i8 %13, ptr %9, align 1
  store i64 0, ptr %11, align 8
  %14 = load ptr, ptr %6, align 8
  call void @spl_filesystem_file_free_line(ptr noundef %14)
  %15 = load ptr, ptr %6, align 8
  %16 = getelementptr inbounds %struct._spl_filesystem_object, ptr %15, i32 0, i32 9
  %17 = getelementptr inbounds %struct.anon.0, ptr %16, i32 0, i32 0
  %18 = load ptr, ptr %17, align 8
  %19 = call zeroext i1 @_php_stream_eof(ptr noundef %18)
  br i1 %19, label %20, label %32

20:                                               ; preds = %4
  %21 = load i8, ptr %7, align 1
  %22 = trunc i8 %21 to i1
  br i1 %22, label %31, label %23

23:                                               ; preds = %20
  %24 = load ptr, ptr @spl_ce_RuntimeException, align 8
  %25 = load ptr, ptr %6, align 8
  %26 = getelementptr inbounds %struct._spl_filesystem_object, ptr %25, i32 0, i32 4
  %27 = load ptr, ptr %26, align 8
  %28 = getelementptr inbounds %struct._zend_string, ptr %27, i32 0, i32 3
  %29 = getelementptr inbounds [1 x i8], ptr %28, i64 0, i64 0
  %30 = call ptr (ptr, i64, ptr, ...) @zend_throw_exception_ex(ptr noundef %24, i64 noundef 0, ptr noundef @.str.57, ptr noundef %29)
  br label %31

31:                                               ; preds = %23, %20
  store i32 -1, ptr %5, align 4
  br label %140

32:                                               ; preds = %4
  %33 = load ptr, ptr %6, align 8
  %34 = getelementptr inbounds %struct._spl_filesystem_object, ptr %33, i32 0, i32 9
  %35 = getelementptr inbounds %struct.anon.0, ptr %34, i32 0, i32 7
  %36 = load i64, ptr %35, align 8
  %37 = icmp ugt i64 %36, 0
  br i1 %37, label %38, label %64

38:                                               ; preds = %32
  %39 = load ptr, ptr %6, align 8
  %40 = getelementptr inbounds %struct._spl_filesystem_object, ptr %39, i32 0, i32 9
  %41 = getelementptr inbounds %struct.anon.0, ptr %40, i32 0, i32 7
  %42 = load i64, ptr %41, align 8
  %43 = add i64 %42, 1
  %44 = call noalias ptr @_safe_emalloc(i64 noundef %43, i64 noundef 1, i64 noundef 0)
  store ptr %44, ptr %10, align 8
  %45 = load ptr, ptr %6, align 8
  %46 = getelementptr inbounds %struct._spl_filesystem_object, ptr %45, i32 0, i32 9
  %47 = getelementptr inbounds %struct.anon.0, ptr %46, i32 0, i32 0
  %48 = load ptr, ptr %47, align 8
  %49 = load ptr, ptr %10, align 8
  %50 = load ptr, ptr %6, align 8
  %51 = getelementptr inbounds %struct._spl_filesystem_object, ptr %50, i32 0, i32 9
  %52 = getelementptr inbounds %struct.anon.0, ptr %51, i32 0, i32 7
  %53 = load i64, ptr %52, align 8
  %54 = add i64 %53, 1
  %55 = call ptr @_php_stream_get_line(ptr noundef %48, ptr noundef %49, i64 noundef %54, ptr noundef %11)
  %56 = icmp eq ptr %55, null
  br i1 %56, label %57, label %59

57:                                               ; preds = %38
  %58 = load ptr, ptr %10, align 8
  call void @_efree(ptr noundef %58)
  store ptr null, ptr %10, align 8
  br label %63

59:                                               ; preds = %38
  %60 = load ptr, ptr %10, align 8
  %61 = load i64, ptr %11, align 8
  %62 = getelementptr inbounds i8, ptr %60, i64 %61
  store i8 0, ptr %62, align 1
  br label %63

63:                                               ; preds = %59, %57
  br label %70

64:                                               ; preds = %32
  %65 = load ptr, ptr %6, align 8
  %66 = getelementptr inbounds %struct._spl_filesystem_object, ptr %65, i32 0, i32 9
  %67 = getelementptr inbounds %struct.anon.0, ptr %66, i32 0, i32 0
  %68 = load ptr, ptr %67, align 8
  %69 = call ptr @_php_stream_get_line(ptr noundef %68, ptr noundef null, i64 noundef 0, ptr noundef %11)
  store ptr %69, ptr %10, align 8
  br label %70

70:                                               ; preds = %64, %63
  %71 = load ptr, ptr %10, align 8
  %72 = icmp ne ptr %71, null
  br i1 %72, label %81, label %73

73:                                               ; preds = %70
  %74 = call noalias ptr @_estrdup(ptr noundef @.str.58)
  %75 = load ptr, ptr %6, align 8
  %76 = getelementptr inbounds %struct._spl_filesystem_object, ptr %75, i32 0, i32 9
  %77 = getelementptr inbounds %struct.anon.0, ptr %76, i32 0, i32 5
  store ptr %74, ptr %77, align 8
  %78 = load ptr, ptr %6, align 8
  %79 = getelementptr inbounds %struct._spl_filesystem_object, ptr %78, i32 0, i32 9
  %80 = getelementptr inbounds %struct.anon.0, ptr %79, i32 0, i32 6
  store i64 0, ptr %80, align 8
  br label %133

81:                                               ; preds = %70
  %82 = load i8, ptr %9, align 1
  %83 = trunc i8 %82 to i1
  br i1 %83, label %124, label %84

84:                                               ; preds = %81
  %85 = load ptr, ptr %6, align 8
  %86 = getelementptr inbounds %struct._spl_filesystem_object, ptr %85, i32 0, i32 6
  %87 = load i64, ptr %86, align 8
  %88 = and i64 %87, 1
  %89 = icmp ne i64 %88, 0
  br i1 %89, label %90, label %91

90:                                               ; preds = %84
  br i1 true, label %92, label %124

91:                                               ; preds = %84
  br i1 false, label %92, label %124

92:                                               ; preds = %91, %90
  %93 = load i64, ptr %11, align 8
  %94 = icmp ugt i64 %93, 0
  br i1 %94, label %95, label %123

95:                                               ; preds = %92
  %96 = load ptr, ptr %10, align 8
  %97 = load i64, ptr %11, align 8
  %98 = sub i64 %97, 1
  %99 = getelementptr inbounds i8, ptr %96, i64 %98
  %100 = load i8, ptr %99, align 1
  %101 = sext i8 %100 to i32
  %102 = icmp eq i32 %101, 10
  br i1 %102, label %103, label %123

103:                                              ; preds = %95
  %104 = load i64, ptr %11, align 8
  %105 = add i64 %104, -1
  store i64 %105, ptr %11, align 8
  %106 = load i64, ptr %11, align 8
  %107 = icmp ugt i64 %106, 0
  br i1 %107, label %108, label %119

108:                                              ; preds = %103
  %109 = load ptr, ptr %10, align 8
  %110 = load i64, ptr %11, align 8
  %111 = sub i64 %110, 1
  %112 = getelementptr inbounds i8, ptr %109, i64 %111
  %113 = load i8, ptr %112, align 1
  %114 = sext i8 %113 to i32
  %115 = icmp eq i32 %114, 13
  br i1 %115, label %116, label %119

116:                                              ; preds = %108
  %117 = load i64, ptr %11, align 8
  %118 = add i64 %117, -1
  store i64 %118, ptr %11, align 8
  br label %119

119:                                              ; preds = %116, %108, %103
  %120 = load ptr, ptr %10, align 8
  %121 = load i64, ptr %11, align 8
  %122 = getelementptr inbounds i8, ptr %120, i64 %121
  store i8 0, ptr %122, align 1
  br label %123

123:                                              ; preds = %119, %95, %92
  br label %124

124:                                              ; preds = %123, %91, %90, %81
  %125 = load ptr, ptr %10, align 8
  %126 = load ptr, ptr %6, align 8
  %127 = getelementptr inbounds %struct._spl_filesystem_object, ptr %126, i32 0, i32 9
  %128 = getelementptr inbounds %struct.anon.0, ptr %127, i32 0, i32 5
  store ptr %125, ptr %128, align 8
  %129 = load i64, ptr %11, align 8
  %130 = load ptr, ptr %6, align 8
  %131 = getelementptr inbounds %struct._spl_filesystem_object, ptr %130, i32 0, i32 9
  %132 = getelementptr inbounds %struct.anon.0, ptr %131, i32 0, i32 6
  store i64 %129, ptr %132, align 8
  br label %133

133:                                              ; preds = %124, %73
  %134 = load i64, ptr %8, align 8
  %135 = load ptr, ptr %6, align 8
  %136 = getelementptr inbounds %struct._spl_filesystem_object, ptr %135, i32 0, i32 9
  %137 = getelementptr inbounds %struct.anon.0, ptr %136, i32 0, i32 8
  %138 = load i64, ptr %137, align 8
  %139 = add nsw i64 %138, %134
  store i64 %139, ptr %137, align 8
  store i32 0, ptr %5, align 4
  br label %140

140:                                              ; preds = %133, %31
  %141 = load i32, ptr %5, align 4
  ret i32 %141
}