; Function Attrs: nounwind uwtable
define internal fastcc noundef i32 @spl_filesystem_file_read_ex(ptr noundef %0, i1 noundef zeroext %1, i64 noundef %2, i1 noundef zeroext %3) unnamed_addr #0 {
  %5 = alloca i64, align 8
  store i64 0, ptr %5, align 8
  %6 = getelementptr inbounds i8, ptr %0, i64 120
  %7 = load ptr, ptr %6, align 8
  %.not.i = icmp eq ptr %7, null
  br i1 %.not.i, label %9, label %8

8:                                                ; preds = %4
  tail call void @_efree(ptr noundef nonnull %7) #18
  store ptr null, ptr %6, align 8
  br label %9

9:                                                ; preds = %8, %4
  %10 = getelementptr inbounds i8, ptr %0, i64 112
  %11 = load i8, ptr %10, align 8
  %12 = icmp eq i8 %11, 0
  br i1 %12, label %spl_filesystem_file_free_line.exit, label %13

13:                                               ; preds = %9
  %14 = getelementptr inbounds i8, ptr %0, i64 104
  tail call void @zval_ptr_dtor(ptr noundef nonnull %14) #18
  store i32 0, ptr %10, align 8
  br label %spl_filesystem_file_free_line.exit

spl_filesystem_file_free_line.exit:               ; preds = %9, %13
  %15 = getelementptr inbounds i8, ptr %0, i64 72
  %16 = load ptr, ptr %15, align 8
  %17 = tail call zeroext i1 @_php_stream_eof(ptr noundef %16) #18
  br i1 %17, label %18, label %25

18:                                               ; preds = %spl_filesystem_file_free_line.exit
  br i1 %1, label %70, label %19

19:                                               ; preds = %18
  %20 = load ptr, ptr @spl_ce_RuntimeException, align 8
  %21 = getelementptr inbounds i8, ptr %0, i64 32
  %22 = load ptr, ptr %21, align 8
  %23 = getelementptr inbounds i8, ptr %22, i64 24
  %24 = tail call ptr (ptr, i64, ptr, ...) @zend_throw_exception_ex(ptr noundef %20, i64 noundef 0, ptr noundef nonnull @.str.57, ptr noundef nonnull %23) #18
  br label %70

25:                                               ; preds = %spl_filesystem_file_free_line.exit
  %26 = getelementptr inbounds i8, ptr %0, i64 136
  %27 = load i64, ptr %26, align 8
  %.not = icmp eq i64 %27, 0
  br i1 %.not, label %38, label %28

28:                                               ; preds = %25
  %29 = add i64 %27, 1
  %30 = tail call noalias ptr @_safe_emalloc(i64 noundef %29, i64 noundef 1, i64 noundef 0) #18
  %31 = load ptr, ptr %15, align 8
  %32 = load i64, ptr %26, align 8
  %33 = add i64 %32, 1
  %34 = call ptr @_php_stream_get_line(ptr noundef %31, ptr noundef %30, i64 noundef %33, ptr noundef nonnull %5) #18
  %35 = icmp eq ptr %34, null
  br i1 %35, label %.thread, label %.thread34

.thread:                                          ; preds = %28
  call void @_efree(ptr noundef %30) #18
  br label %41

.thread34:                                        ; preds = %28
  %36 = load i64, ptr %5, align 8
  %37 = getelementptr inbounds i8, ptr %30, i64 %36
  store i8 0, ptr %37, align 1
  br label %43

38:                                               ; preds = %25
  %39 = load ptr, ptr %15, align 8
  %40 = call ptr @_php_stream_get_line(ptr noundef %39, ptr noundef null, i64 noundef 0, ptr noundef nonnull %5) #18
  %.not30 = icmp eq ptr %40, null
  br i1 %.not30, label %41, label %._crit_edge

._crit_edge:                                      ; preds = %38
  %.pre38.pre = load i64, ptr %5, align 8
  br label %43

41:                                               ; preds = %.thread, %38
  %42 = call noalias ptr @_estrdup(ptr noundef nonnull @.str.58) #18
  br label %65

43:                                               ; preds = %._crit_edge, %.thread34
  %.pre38 = phi i64 [ %36, %.thread34 ], [ %.pre38.pre, %._crit_edge ]
  %.037 = phi ptr [ %30, %.thread34 ], [ %40, %._crit_edge ]
  br i1 %3, label %65, label %44

44:                                               ; preds = %43
  %45 = getelementptr inbounds i8, ptr %0, i64 48
  %46 = load i64, ptr %45, align 8
  %47 = and i64 %46, 1
  %48 = icmp ne i64 %47, 0
  %49 = icmp ne i64 %.pre38, 0
  %or.cond = select i1 %48, i1 %49, i1 false
  br i1 %or.cond, label %50, label %65

50:                                               ; preds = %44
  %51 = add i64 %.pre38, -1
  %52 = getelementptr inbounds i8, ptr %.037, i64 %51
  %53 = load i8, ptr %52, align 1
  %54 = icmp eq i8 %53, 10
  br i1 %54, label %55, label %65

55:                                               ; preds = %50
  store i64 %51, ptr %5, align 8
  %.not31 = icmp eq i64 %51, 0
  br i1 %.not31, label %62, label %56

56:                                               ; preds = %55
  %57 = add i64 %.pre38, -2
  %58 = getelementptr inbounds i8, ptr %.037, i64 %57
  %59 = load i8, ptr %58, align 1
  %60 = icmp eq i8 %59, 13
  br i1 %60, label %61, label %62

61:                                               ; preds = %56
  store i64 %57, ptr %5, align 8
  br label %62

62:                                               ; preds = %61, %56, %55
  %63 = phi i64 [ %57, %61 ], [ %51, %56 ], [ 0, %55 ]
  %64 = getelementptr inbounds i8, ptr %.037, i64 %63
  store i8 0, ptr %64, align 1
  %.pre = load i64, ptr %5, align 8
  br label %65

65:                                               ; preds = %43, %44, %62, %50, %41
  %.037.sink = phi ptr [ %42, %41 ], [ %.037, %50 ], [ %.037, %62 ], [ %.037, %44 ], [ %.037, %43 ]
  %.sink = phi i64 [ 0, %41 ], [ %.pre38, %50 ], [ %.pre, %62 ], [ %.pre38, %44 ], [ %.pre38, %43 ]
  store ptr %.037.sink, ptr %6, align 8
  %66 = getelementptr inbounds i8, ptr %0, i64 128
  store i64 %.sink, ptr %66, align 8
  %67 = getelementptr inbounds i8, ptr %0, i64 144
  %68 = load i64, ptr %67, align 8
  %69 = add nsw i64 %68, %2
  store i64 %69, ptr %67, align 8
  br label %70

70:                                               ; preds = %18, %19, %65
  %.026 = phi i32 [ 0, %65 ], [ -1, %19 ], [ -1, %18 ]
  ret i32 %.026
}